; Function Attrs: mustprogress uwtable
define void @_ZN3gmx10TextReader16readFileToStringERKNSt10filesystem7__cxx114pathE(ptr dead_on_unwind noalias writable sret(%"class.std::__cxx11::basic_string") align 8 %0, ptr noundef nonnull align 8 dereferenceable(40) %1) local_unnamed_addr #0 align 2 personality ptr @__gxx_personality_v0 {
  %3 = alloca %"class.std::__cxx11::basic_string", align 8
  %4 = alloca %"class.gmx::TextReader", align 8
  call void @_ZN3gmx10TextReaderC1ERKNSt10filesystem7__cxx114pathE(ptr noundef nonnull align 8 dereferenceable(8) %4, ptr noundef nonnull align 8 dereferenceable(40) %1)
  call void @llvm.lifetime.start.p0(i64 32, ptr nonnull %3)
  call void @_ZNSt7__cxx1112basic_stringIcSt11char_traitsIcESaIcEEC1Ev(ptr noundef nonnull align 8 dereferenceable(32) %0) #12
  call void @_ZNSt7__cxx1112basic_stringIcSt11char_traitsIcESaIcEEC1Ev(ptr noundef nonnull align 8 dereferenceable(32) %3) #12
  br label %5

5:                                                ; preds = %8, %2
  %6 = invoke noundef zeroext i1 @_ZN3gmx10TextReader8readLineEPNSt7__cxx1112basic_stringIcSt11char_traitsIcESaIcEEE(ptr noundef nonnull align 8 dereferenceable(8) %4, ptr noundef nonnull %3)
          to label %7 unwind label %10

7:                                                ; preds = %5
  br i1 %6, label %8, label %12

8:                                                ; preds = %7
  %9 = invoke noundef nonnull align 8 dereferenceable(32) ptr @_ZNSt7__cxx1112basic_stringIcSt11char_traitsIcESaIcEE6appendERKS4_(ptr noundef nonnull align 8 dereferenceable(32) %0, ptr noundef nonnull align 8 dereferenceable(32) %3)
          to label %5 unwind label %10, !llvm.loop !5

10:                                               ; preds = %8, %5
  %11 = landingpad { ptr, i32 }
          cleanup
  call void @_ZNSt7__cxx1112basic_stringIcSt11char_traitsIcESaIcEED1Ev(ptr noundef nonnull align 8 dereferenceable(32) %3) #12
  br label %.body

12:                                               ; preds = %7
  call void @_ZNSt7__cxx1112basic_stringIcSt11char_traitsIcESaIcEED1Ev(ptr noundef nonnull align 8 dereferenceable(32) %3) #12
  call void @llvm.lifetime.end.p0(i64 32, ptr nonnull %3)
  %13 = load ptr, ptr %4, align 8
  %14 = load ptr, ptr %13, align 8
  %15 = load ptr, ptr %14, align 8
  %16 = getelementptr inbounds i8, ptr %15, i64 24
  %17 = load ptr, ptr %16, align 8
  invoke void %17(ptr noundef nonnull align 8 dereferenceable(8) %14)
          to label %_ZN3gmx10TextReader5closeEv.exit unwind label %18

18:                                               ; preds = %12
  %19 = landingpad { ptr, i32 }
          cleanup
  br label %.body

_ZN3gmx10TextReader5closeEv.exit:                 ; preds = %12
  call void @_ZN3gmx10TextReaderD1Ev(ptr noundef nonnull align 8 dereferenceable(8) %4) #12
  ret void

.body:                                            ; preds = %10, %18
  %.pn = phi { ptr, i32 } [ %19, %18 ], [ %11, %10 ]
  call void @_ZNSt7__cxx1112basic_stringIcSt11char_traitsIcESaIcEED1Ev(ptr noundef nonnull align 8 dereferenceable(32) %0) #12
  call void @_ZN3gmx10TextReaderD1Ev(ptr noundef nonnull align 8 dereferenceable(8) %4) #12
  resume { ptr, i32 } %.pn
}